target datalayout = "e-m:e-p270:32:32-p271:32:32-p272:64:64-i64:64-i128:128-f80:128-n8:16:32:64-S128"
target triple = "x86_64-pc-linux-gnu"

%"struct.OpenColorIO_v2_5dev::GradingControlPoint" = type { float, float }

; Function Attrs: mustprogress nounwind uwtable
define noundef zeroext i1 @_ZN19OpenColorIO_v2_5deveqERKNS_19GradingControlPointES2_(ptr noundef nonnull align 4 dereferenceable(8) %0, ptr noundef nonnull align 4 dereferenceable(8) %1) #3 {
  %3 = alloca ptr, align 8
  %4 = alloca ptr, align 8
  store ptr %0, ptr %3, align 8, !tbaa !22
  store ptr %1, ptr %4, align 8, !tbaa !22
  %5 = load ptr, ptr %3, align 8, !tbaa !22
  %6 = getelementptr inbounds nuw %"struct.OpenColorIO_v2_5dev::GradingControlPoint", ptr %5, i32 0, i32 0
  %7 = load float, ptr %6, align 4, !tbaa !70
  %8 = load ptr, ptr %4, align 8, !tbaa !22
  %9 = getelementptr inbounds nuw %"struct.OpenColorIO_v2_5dev::GradingControlPoint", ptr %8, i32 0, i32 0
  %10 = load float, ptr %9, align 4, !tbaa !70
  %11 = fcmp oeq float %7, %10
  br i1 %11, label %12, label %20

12:                                               ; preds = %2
  %13 = load ptr, ptr %3, align 8, !tbaa !22
  %14 = getelementptr inbounds nuw %"struct.OpenColorIO_v2_5dev::GradingControlPoint", ptr %13, i32 0, i32 1
  %15 = load float, ptr %14, align 4, !tbaa !73
  %16 = load ptr, ptr %4, align 8, !tbaa !22
  %17 = getelementptr inbounds nuw %"struct.OpenColorIO_v2_5dev::GradingControlPoint", ptr %16, i32 0, i32 1
  %18 = load float, ptr %17, align 4, !tbaa !73
  %19 = fcmp oeq float %15, %18
  br label %20

20:                                               ; preds = %12, %2
  %21 = phi i1 [ false, %2 ], [ %19, %12 ]
  ret i1 %21
}

; Function Attrs: mustprogress nounwind uwtable
define noundef zeroext i1 @_ZN19OpenColorIO_v2_5devneERKNS_19GradingControlPointES2_(ptr noundef nonnull align 4 dereferenceable(8) %0, ptr noundef nonnull align 4 dereferenceable(8) %1) #3 {
  %3 = alloca ptr, align 8
  %4 = alloca ptr, align 8
  store ptr %0, ptr %3, align 8, !tbaa !22
  store ptr %1, ptr %4, align 8, !tbaa !22
  %5 = load ptr, ptr %3, align 8, !tbaa !22
  %6 = load ptr, ptr %4, align 8, !tbaa !22
  %7 = call noundef zeroext i1 @_ZN19OpenColorIO_v2_5deveqERKNS_19GradingControlPointES2_(ptr noundef nonnull align 4 dereferenceable(8) %5, ptr noundef nonnull align 4 dereferenceable(8) %6)
  %8 = xor i1 %7, true
  ret i1 %8
}

; Function Attrs: mustprogress uwtable
define noundef zeroext i1 @_ZN19OpenColorIO_v2_5deveqERKNS_19GradingBSplineCurveES2_(ptr noundef nonnull align 8 dereferenceable(8) %0, ptr noundef nonnull align 8 dereferenceable(8) %1) #0 {
  %3 = alloca i1, align 1
  %4 = alloca ptr, align 8
  %5 = alloca ptr, align 8
  %6 = alloca i64, align 8
  %7 = alloca i64, align 8
  %8 = alloca i32, align 4
  store ptr %0, ptr %4, align 8, !tbaa !36
  store ptr %1, ptr %5, align 8, !tbaa !36
  call void @llvm.lifetime.start.p0(i64 8, ptr %6) #21
  %9 = load ptr, ptr %4, align 8, !tbaa !36
  %10 = load ptr, ptr %9, align 8, !tbaa !24
  %11 = getelementptr inbounds ptr, ptr %10, i64 1
  %12 = load ptr, ptr %11, align 8
  %13 = call noundef i64 %12(ptr noundef nonnull align 8 dereferenceable(8) %9) #21
  store i64 %13, ptr %6, align 8, !tbaa !3
  %14 = load i64, ptr %6, align 8, !tbaa !3
  %15 = load ptr, ptr %5, align 8, !tbaa !36
  %16 = load ptr, ptr %15, align 8, !tbaa !24
  %17 = getelementptr inbounds ptr, ptr %16, i64 1
  %18 = load ptr, ptr %17, align 8
  %19 = call noundef i64 %18(ptr noundef nonnull align 8 dereferenceable(8) %15) #21
  %20 = icmp eq i64 %14, %19
  br i1 %20, label %21, label %49

21:                                               ; preds = %2
  call void @llvm.lifetime.start.p0(i64 8, ptr %7) #21
  store i64 0, ptr %7, align 8, !tbaa !3
  br label %22

22:                                               ; preds = %43, %21
  %23 = load i64, ptr %7, align 8, !tbaa !3
  %24 = load i64, ptr %6, align 8, !tbaa !3
  %25 = icmp ult i64 %23, %24
  br i1 %25, label %27, label %26

26:                                               ; preds = %22
  store i32 2, ptr %8, align 4
  br label %46

27:                                               ; preds = %22
  %28 = load ptr, ptr %4, align 8, !tbaa !36
  %29 = load i64, ptr %7, align 8, !tbaa !3
  %30 = load ptr, ptr %28, align 8, !tbaa !24
  %31 = getelementptr inbounds ptr, ptr %30, i64 3
  %32 = load ptr, ptr %31, align 8
  %33 = call noundef nonnull align 4 dereferenceable(8) ptr %32(ptr noundef nonnull align 8 dereferenceable(8) %28, i64 noundef %29)
  %34 = load ptr, ptr %5, align 8, !tbaa !36
  %35 = load i64, ptr %7, align 8, !tbaa !3
  %36 = load ptr, ptr %34, align 8, !tbaa !24
  %37 = getelementptr inbounds ptr, ptr %36, i64 3
  %38 = load ptr, ptr %37, align 8
  %39 = call noundef nonnull align 4 dereferenceable(8) ptr %38(ptr noundef nonnull align 8 dereferenceable(8) %34, i64 noundef %35)
  %40 = call noundef zeroext i1 @_ZN19OpenColorIO_v2_5devneERKNS_19GradingControlPointES2_(ptr noundef nonnull align 4 dereferenceable(8) %33, ptr noundef nonnull align 4 dereferenceable(8) %39)
  br i1 %40, label %41, label %42

41:                                               ; preds = %27
  store i1 false, ptr %3, align 1
  store i32 1, ptr %8, align 4
  br label %46

42:                                               ; preds = %27
  br label %43

43:                                               ; preds = %42
  %44 = load i64, ptr %7, align 8, !tbaa !3
  %45 = add i64 %44, 1
  store i64 %45, ptr %7, align 8, !tbaa !3
  br label %22, !llvm.loop !114

46:                                               ; preds = %41, %26
  call void @llvm.lifetime.end.p0(i64 8, ptr %7) #21
  %47 = load i32, ptr %8, align 4
  switch i32 %47, label %50 [
    i32 2, label %48
  ]

48:                                               ; preds = %46
  store i1 true, ptr %3, align 1
  store i32 1, ptr %8, align 4
  br label %50

49:                                               ; preds = %2
  store i1 false, ptr %3, align 1
  store i32 1, ptr %8, align 4
  br label %50

50:                                               ; preds = %49, %48, %46
  call void @llvm.lifetime.end.p0(i64 8, ptr %6) #21
  %51 = load i1, ptr %3, align 1
  ret i1 %51
}