; Function Attrs: mustprogress uwtable
define noundef zeroext i1 @_ZN19OpenColorIO_v2_5deveqERKNS_19GradingBSplineCurveES2_(ptr noundef nonnull align 8 dereferenceable(8) %0, ptr noundef nonnull align 8 dereferenceable(8) %1) local_unnamed_addr #0 {
  %3 = load ptr, ptr %0, align 8, !tbaa !26
  %4 = getelementptr inbounds nuw i8, ptr %3, i64 8
  %5 = load ptr, ptr %4, align 8
  %6 = tail call noundef i64 %5(ptr noundef nonnull align 8 dereferenceable(8) %0) #22
  %7 = load ptr, ptr %1, align 8, !tbaa !26
  %8 = getelementptr inbounds nuw i8, ptr %7, i64 8
  %9 = load ptr, ptr %8, align 8
  %10 = tail call noundef i64 %9(ptr noundef nonnull align 8 dereferenceable(8) %1) #22
  %11 = icmp eq i64 %6, %10
  br i1 %11, label %.preheader, label %.loopexit

.preheader:                                       ; preds = %2
  %.not14 = icmp eq i64 %6, 0
  br i1 %.not14, label %.loopexit, label %.lr.ph

.lr.ph:                                           ; preds = %.preheader, %.lr.ph
  %.01115 = phi i64 [ %28, %.lr.ph ], [ 0, %.preheader ]
  %12 = load ptr, ptr %0, align 8, !tbaa !26
  %13 = getelementptr inbounds nuw i8, ptr %12, i64 24
  %14 = load ptr, ptr %13, align 8
  %15 = tail call noundef nonnull align 4 dereferenceable(8) ptr %14(ptr noundef nonnull align 8 dereferenceable(8) %0, i64 noundef %.01115)
  %16 = load ptr, ptr %1, align 8, !tbaa !26
  %17 = getelementptr inbounds nuw i8, ptr %16, i64 24
  %18 = load ptr, ptr %17, align 8
  %19 = tail call noundef nonnull align 4 dereferenceable(8) ptr %18(ptr noundef nonnull align 8 dereferenceable(8) %1, i64 noundef %.01115)
  %20 = load float, ptr %15, align 4, !tbaa !63
  %21 = load float, ptr %19, align 4, !tbaa !63
  %22 = fcmp oeq float %20, %21
  %23 = getelementptr inbounds nuw i8, ptr %15, i64 4
  %24 = load float, ptr %23, align 4
  %25 = getelementptr inbounds nuw i8, ptr %19, i64 4
  %26 = load float, ptr %25, align 4
  %27 = fcmp oeq float %24, %26
  %.not3.i.not = select i1 %22, i1 %27, i1 false
  %28 = add nuw i64 %.01115, 1
  %exitcond.not = icmp ne i64 %28, %6
  %or.cond.not = select i1 %.not3.i.not, i1 %exitcond.not, i1 false
  br i1 %or.cond.not, label %.lr.ph, label %.loopexit, !llvm.loop !81

.loopexit:                                        ; preds = %.lr.ph, %.preheader, %2
  %.1 = phi i1 [ false, %2 ], [ true, %.preheader ], [ %.not3.i.not, %.lr.ph ]
  ret i1 %.1
}